******************************************************************************
             TMS320C2000 Linker PC v6.0.1                      
******************************************************************************
>> Linked Mon Apr 14 22:27:28 2014

OUTPUT FILE NAME:   <F:/baoyujian/QEP_POS_SPEED/Debug/QEP_POS_SPEED.out>
ENTRY POINT SYMBOL: "_c_int00"  address: 0033944d


MEMORY CONFIGURATION

         name            origin    length      used     unused   attr    fill
----------------------  --------  ---------  --------  --------  ----  --------
PAGE 0:
  ZONE0                 00004000   00001000  00000000  00001000  RWIX
  RAML0                 00008000   00001000  0000001f  00000fe1  RWIX
  RAML1                 00009000   00001000  00000000  00001000  RWIX
  RAML2                 0000a000   00001000  00000000  00001000  RWIX
  RAML3                 0000b000   00001000  00000000  00001000  RWIX
  ZONE6                 00100000   00100000  00000000  00100000  RWIX
  ZONE7A                00200000   0000fc00  00000000  0000fc00  RWIX
  FLASHH                00300000   00008000  00000000  00008000  RWIX
  FLASHG                00308000   00008000  00000000  00008000  RWIX
  FLASHF                00310000   00008000  00000000  00008000  RWIX
  FLASHE                00318000   00008000  00000000  00008000  RWIX
  FLASHD                00320000   00008000  0000001f  00007fe1  RWIX
  FLASHC                00328000   00008000  00000047  00007fb9  RWIX
  FLASHA                00338000   00007f80  000017ca  000067b6  RWIX
  CSM_RSVD              0033ff80   00000076  00000000  00000076  RWIX
  BEGIN                 0033fff6   00000002  00000002  00000000  RWIX
  CSM_PWL               0033fff8   00000008  00000000  00000008  RWIX
  ADC_CAL               00380080   00000009  00000007  00000002  RWIX
  OTP                   00380400   00000400  00000000  00000400  RWIX
  IQTABLES              003fe000   00000b50  00000b50  00000000  RWIX
  IQTABLES2             003feb50   0000008c  00000000  0000008c  RWIX
  FPUTABLES             003febdc   000006a0  00000000  000006a0  RWIX
  ROM                   003ff27c   00000d44  00000000  00000d44  RWIX
  RESET                 003fffc0   00000002  00000000  00000002  RWIX
  VECTORS               003fffc2   0000003e  00000000  0000003e  RWIX

PAGE 1:
  BOOT_RSVD             00000000   00000050  00000000  00000050  RWIX
  RAMM0                 00000050   000003b0  00000000  000003b0  RWIX
  RAMM1                 00000400   00000400  000003e8  00000018  RWIX
  DEV_EMU               00000880   00000180  000000d0  000000b0  RWIX
  FLASH_REGS            00000a80   00000060  00000008  00000058  RWIX
  CSM                   00000ae0   00000010  00000010  00000000  RWIX
  ADC_MIRROR            00000b00   00000010  00000010  00000000  RWIX
  XINTF                 00000b20   00000020  0000001e  00000002  RWIX
  CPU_TIMER0            00000c00   00000008  00000008  00000000  RWIX
  CPU_TIMER1            00000c08   00000008  00000008  00000000  RWIX
  CPU_TIMER2            00000c10   00000008  00000008  00000000  RWIX
  PIE_CTRL              00000ce0   00000020  0000001a  00000006  RWIX
  PIE_VECT              00000d00   00000100  00000100  00000000  RWIX
  DMA                   00001000   00000200  000000e0  00000120  RWIX
  MCBSPA                00005000   00000040  00000025  0000001b  RWIX
  MCBSPB                00005040   00000040  00000025  0000001b  RWIX
  ECANA                 00006000   00000040  00000034  0000000c  RWIX
  ECANA_LAM             00006040   00000040  00000040  00000000  RWIX
  ECANA_MOTS            00006080   00000040  00000040  00000000  RWIX
  ECANA_MOTO            000060c0   00000040  00000040  00000000  RWIX
  ECANA_MBOX            00006100   00000100  00000100  00000000  RWIX
  ECANB                 00006200   00000040  00000034  0000000c  RWIX
  ECANB_LAM             00006240   00000040  00000040  00000000  RWIX
  ECANB_MOTS            00006280   00000040  00000040  00000000  RWIX
  ECANB_MOTO            000062c0   00000040  00000040  00000000  RWIX
  ECANB_MBOX            00006300   00000100  00000100  00000000  RWIX
  EPWM1                 00006800   00000022  00000022  00000000  RWIX
  EPWM2                 00006840   00000022  00000022  00000000  RWIX
  EPWM3                 00006880   00000022  00000022  00000000  RWIX
  EPWM4                 000068c0   00000022  00000022  00000000  RWIX
  EPWM5                 00006900   00000022  00000022  00000000  RWIX
  EPWM6                 00006940   00000022  00000022  00000000  RWIX
  ECAP1                 00006a00   00000020  00000020  00000000  RWIX
  ECAP2                 00006a20   00000020  00000020  00000000  RWIX
  ECAP3                 00006a40   00000020  00000020  00000000  RWIX
  ECAP4                 00006a60   00000020  00000020  00000000  RWIX
  ECAP5                 00006a80   00000020  00000020  00000000  RWIX
  ECAP6                 00006aa0   00000020  00000020  00000000  RWIX
  EQEP1                 00006b00   00000040  00000040  00000000  RWIX
  EQEP2                 00006b40   00000040  00000040  00000000  RWIX
  GPIOCTRL              00006f80   00000040  0000002e  00000012  RWIX
  GPIODAT               00006fc0   00000020  00000020  00000000  RWIX
  GPIOINT               00006fe0   00000020  0000000a  00000016  RWIX
  SYSTEM                00007010   00000020  00000020  00000000  RWIX
  SPIA                  00007040   00000010  00000010  00000000  RWIX
  SCIA                  00007050   00000010  00000010  00000000  RWIX
  XINTRUPT              00007070   00000010  00000010  00000000  RWIX
  ADC                   00007100   00000020  0000001e  00000002  RWIX
  SCIB                  00007750   00000010  00000010  00000000  RWIX
  SCIC                  00007770   00000010  00000010  00000000  RWIX
  I2CA                  00007900   00000040  00000022  0000001e  RWIX
  RAML4                 0000c000   00001000  0000015d  00000ea3  RWIX
  RAML5                 0000d000   00001000  00000000  00001000  RWIX
  RAML6                 0000e000   00001000  00000000  00001000  RWIX
  RAML7                 0000f000   00001000  00000000  00001000  RWIX
  ZONE7B                0020fc00   00000400  00000000  00000400  RWIX
  FLASHB                00330000   00008000  00000000  00008000  RWIX
  CSM_PWL               0033fff8   00000008  00000008  00000000  RWIX
  PARTID                00380090   00000001  00000001  00000000  RWIX


SECTION ALLOCATION MAP

 output                                  attributes/
section   page    origin      length       input sections
--------  ----  ----------  ----------   ----------------
.pinit     0    00338000    00000000     UNINITIALIZED

ramfuncs   0    00320000    0000001f     RUN ADDR = 00008000
                  00320000    0000001b     DSP2833x_SysCtrl.obj (ramfuncs)
                  0032001b    00000004     DSP2833x_usDelay.obj (ramfuncs)

IQmath     0    00328000    00000047     
                  00328000    00000047     IQmath_fpu32.lib : IQ24div.obj (IQmath)

.text      0    00338000    000015b5     
                  00338000    0000064f     Example_2833xEqep_pos_speed.obj (.text)
                  0033864f    00000316     DSP2833x_DefaultIsr.obj (.text:retain)
                  00338965    0000020e     Example_posspeed.obj (.text)
                  00338b73    00000130     DSP2833x_ECan.obj (.text)
                  00338ca3    00000106     DSP2833x_Xintf.obj (.text)
                  00338da9    000000f8     Example_EPwmSetup.obj (.text)
                  00338ea1    000000f5     DSP2833x_SysCtrl.obj (.text)
                  00338f96    000000df     Example_2833xEqep_pos_speed.obj (.text:retain)
                  00339075    000000c8     DSP2833x_EPwm.obj (.text)
                  0033913d    00000088     rts2800_fpu32.lib : fs_div.obj (.text)
                  003391c5    0000007b     DSP2833x_EQep.obj (.text)
                  00339240    00000074     DSP2833x_CpuTimers.obj (.text)
                  003392b4    00000070     rts2800_fpu32.lib : atan.obj (.text)
                  00339324    0000006f                       : acos.obj (.text)
                  00339393    0000005f                       : cos.obj (.text)
                  003393f2    0000005b                       : sin.obj (.text)
                  0033944d    00000046                       : boot.obj (.text)
                  00339493    0000002c     DSP2833x_Spi.obj (.text)
                  003394bf    0000002a     rts2800_fpu32.lib : l_div.obj (.text)
                  003394e9    00000028     DSP2833x_PieCtrl.obj (.text)
                  00339511    00000021     rts2800_fpu32.lib : memcpy_ff.obj (.text)
                  00339532    00000020     DSP2833x_PieVect.obj (.text)
                  00339552    00000020     rts2800_fpu32.lib : sqrt.obj (.text)
                  00339572    00000019                       : args_main.obj (.text)
                  0033958b    00000019                       : exit.obj (.text)
                  003395a4    00000009                       : _lock.obj (.text)
                  003395ad    00000008     DSP2833x_CodeStartBranch.obj (.text)

.econst    0    003395b6    00000110     
                  003395b6    00000100     DSP2833x_PieVect.obj (.econst)
                  003396b6    00000008     rts2800_fpu32.lib : atan.obj (.econst:_a$1)
                  003396be    00000004                       : acos.obj (.econst:_b$1)
                  003396c2    00000004                       : acos.obj (.econst:_c$2)

.cinit     0    003396c6    00000105     
                  003396c6    000000eb     Example_2833xEqep_pos_speed.obj (.cinit)
                  003397b1    0000000a     rts2800_fpu32.lib : _lock.obj (.cinit)
                  003397bb    0000000a                       : exit.obj (.cinit)
                  003397c5    00000004                       : errno.obj (.cinit)
                  003397c9    00000002     --HOLE-- [fill = 0]

codestart 
*          0    0033fff6    00000002     
                  0033fff6    00000002     DSP2833x_CodeStartBranch.obj (codestart)

.adc_cal   0    00380080    00000007     NOLOAD SECTION
                  00380080    00000007     DSP2833x_ADC_cal.obj (.adc_cal)

IQmathTables 
*          0    003fe000    00000b50     NOLOAD SECTION
                  003fe000    00000b50     IQmath_fpu32.lib : IQmathTables.obj (IQmathTables)

.reset     0    003fffc0    00000002     DSECT
                  003fffc0    00000002     rts2800_fpu32.lib : boot.obj (.reset)

vectors    0    003fffc2    00000000     DSECT

.stack     1    00000400    000003e8     UNINITIALIZED
                  00000400    000003e8     --HOLE--

DevEmuRegsFile 
*          1    00000880    000000d0     UNINITIALIZED
                  00000880    000000d0     DSP2833x_GlobalVariableDefs.obj (DevEmuRegsFile)

FlashRegsFile 
*          1    00000a80    00000008     UNINITIALIZED
                  00000a80    00000008     DSP2833x_GlobalVariableDefs.obj (FlashRegsFile)

CsmRegsFile 
*          1    00000ae0    00000010     UNINITIALIZED
                  00000ae0    00000010     DSP2833x_GlobalVariableDefs.obj (CsmRegsFile)

AdcMirrorFile 
*          1    00000b00    00000010     UNINITIALIZED
                  00000b00    00000010     DSP2833x_GlobalVariableDefs.obj (AdcMirrorFile)

XintfRegsFile 
*          1    00000b20    0000001e     UNINITIALIZED
                  00000b20    0000001e     DSP2833x_GlobalVariableDefs.obj (XintfRegsFile)

CpuTimer0RegsFile 
*          1    00000c00    00000008     UNINITIALIZED
                  00000c00    00000008     DSP2833x_GlobalVariableDefs.obj (CpuTimer0RegsFile)

CpuTimer1RegsFile 
*          1    00000c08    00000008     UNINITIALIZED
                  00000c08    00000008     DSP2833x_GlobalVariableDefs.obj (CpuTimer1RegsFile)

CpuTimer2RegsFile 
*          1    00000c10    00000008     UNINITIALIZED
                  00000c10    00000008     DSP2833x_GlobalVariableDefs.obj (CpuTimer2RegsFile)

PieCtrlRegsFile 
*          1    00000ce0    0000001a     UNINITIALIZED
                  00000ce0    0000001a     DSP2833x_GlobalVariableDefs.obj (PieCtrlRegsFile)

PieVectTableFile 
*          1    00000d00    00000100     UNINITIALIZED
                  00000d00    00000100     DSP2833x_GlobalVariableDefs.obj (PieVectTableFile)

DmaRegsFile 
*          1    00001000    000000e0     UNINITIALIZED
                  00001000    000000e0     DSP2833x_GlobalVariableDefs.obj (DmaRegsFile)

McbspaRegsFile 
*          1    00005000    00000025     UNINITIALIZED
                  00005000    00000025     DSP2833x_GlobalVariableDefs.obj (McbspaRegsFile)

McbspbRegsFile 
*          1    00005040    00000025     UNINITIALIZED
                  00005040    00000025     DSP2833x_GlobalVariableDefs.obj (McbspbRegsFile)

ECanaRegsFile 
*          1    00006000    00000034     UNINITIALIZED
                  00006000    00000034     DSP2833x_GlobalVariableDefs.obj (ECanaRegsFile)

ECanaLAMRegsFile 
*          1    00006040    00000040     UNINITIALIZED
                  00006040    00000040     DSP2833x_GlobalVariableDefs.obj (ECanaLAMRegsFile)

ECanaMOTSRegsFile 
*          1    00006080    00000040     UNINITIALIZED
                  00006080    00000040     DSP2833x_GlobalVariableDefs.obj (ECanaMOTSRegsFile)

ECanaMOTORegsFile 
*          1    000060c0    00000040     UNINITIALIZED
                  000060c0    00000040     DSP2833x_GlobalVariableDefs.obj (ECanaMOTORegsFile)

ECanaMboxesFile 
*          1    00006100    00000100     UNINITIALIZED
                  00006100    00000100     DSP2833x_GlobalVariableDefs.obj (ECanaMboxesFile)

ECanbRegsFile 
*          1    00006200    00000034     UNINITIALIZED
                  00006200    00000034     DSP2833x_GlobalVariableDefs.obj (ECanbRegsFile)

ECanbLAMRegsFile 
*          1    00006240    00000040     UNINITIALIZED
                  00006240    00000040     DSP2833x_GlobalVariableDefs.obj (ECanbLAMRegsFile)

ECanbMOTSRegsFile 
*          1    00006280    00000040     UNINITIALIZED
                  00006280    00000040     DSP2833x_GlobalVariableDefs.obj (ECanbMOTSRegsFile)

ECanbMOTORegsFile 
*          1    000062c0    00000040     UNINITIALIZED
                  000062c0    00000040     DSP2833x_GlobalVariableDefs.obj (ECanbMOTORegsFile)

ECanbMboxesFile 
*          1    00006300    00000100     UNINITIALIZED
                  00006300    00000100     DSP2833x_GlobalVariableDefs.obj (ECanbMboxesFile)

EPwm1RegsFile 
*          1    00006800    00000022     UNINITIALIZED
                  00006800    00000022     DSP2833x_GlobalVariableDefs.obj (EPwm1RegsFile)

EPwm2RegsFile 
*          1    00006840    00000022     UNINITIALIZED
                  00006840    00000022     DSP2833x_GlobalVariableDefs.obj (EPwm2RegsFile)

EPwm3RegsFile 
*          1    00006880    00000022     UNINITIALIZED
                  00006880    00000022     DSP2833x_GlobalVariableDefs.obj (EPwm3RegsFile)

EPwm4RegsFile 
*          1    000068c0    00000022     UNINITIALIZED
                  000068c0    00000022     DSP2833x_GlobalVariableDefs.obj (EPwm4RegsFile)

EPwm5RegsFile 
*          1    00006900    00000022     UNINITIALIZED
                  00006900    00000022     DSP2833x_GlobalVariableDefs.obj (EPwm5RegsFile)

EPwm6RegsFile 
*          1    00006940    00000022     UNINITIALIZED
                  00006940    00000022     DSP2833x_GlobalVariableDefs.obj (EPwm6RegsFile)

ECap1RegsFile 
*          1    00006a00    00000020     UNINITIALIZED
                  00006a00    00000020     DSP2833x_GlobalVariableDefs.obj (ECap1RegsFile)

ECap2RegsFile 
*          1    00006a20    00000020     UNINITIALIZED
                  00006a20    00000020     DSP2833x_GlobalVariableDefs.obj (ECap2RegsFile)

ECap3RegsFile 
*          1    00006a40    00000020     UNINITIALIZED
                  00006a40    00000020     DSP2833x_GlobalVariableDefs.obj (ECap3RegsFile)

ECap4RegsFile 
*          1    00006a60    00000020     UNINITIALIZED
                  00006a60    00000020     DSP2833x_GlobalVariableDefs.obj (ECap4RegsFile)

ECap5RegsFile 
*          1    00006a80    00000020     UNINITIALIZED
                  00006a80    00000020     DSP2833x_GlobalVariableDefs.obj (ECap5RegsFile)

ECap6RegsFile 
*          1    00006aa0    00000020     UNINITIALIZED
                  00006aa0    00000020     DSP2833x_GlobalVariableDefs.obj (ECap6RegsFile)

EQep1RegsFile 
*          1    00006b00    00000040     UNINITIALIZED
                  00006b00    00000040     DSP2833x_GlobalVariableDefs.obj (EQep1RegsFile)

EQep2RegsFile 
*          1    00006b40    00000040     UNINITIALIZED
                  00006b40    00000040     DSP2833x_GlobalVariableDefs.obj (EQep2RegsFile)

GpioCtrlRegsFile 
*          1    00006f80    0000002e     UNINITIALIZED
                  00006f80    0000002e     DSP2833x_GlobalVariableDefs.obj (GpioCtrlRegsFile)

GpioDataRegsFile 
*          1    00006fc0    00000020     UNINITIALIZED
                  00006fc0    00000020     DSP2833x_GlobalVariableDefs.obj (GpioDataRegsFile)

GpioIntRegsFile 
*          1    00006fe0    0000000a     UNINITIALIZED
                  00006fe0    0000000a     DSP2833x_GlobalVariableDefs.obj (GpioIntRegsFile)

SysCtrlRegsFile 
*          1    00007010    00000020     UNINITIALIZED
                  00007010    00000020     DSP2833x_GlobalVariableDefs.obj (SysCtrlRegsFile)

SpiaRegsFile 
*          1    00007040    00000010     UNINITIALIZED
                  00007040    00000010     DSP2833x_GlobalVariableDefs.obj (SpiaRegsFile)

SciaRegsFile 
*          1    00007050    00000010     UNINITIALIZED
                  00007050    00000010     DSP2833x_GlobalVariableDefs.obj (SciaRegsFile)

XIntruptRegsFile 
*          1    00007070    00000010     UNINITIALIZED
                  00007070    00000010     DSP2833x_GlobalVariableDefs.obj (XIntruptRegsFile)

AdcRegsFile 
*          1    00007100    0000001e     UNINITIALIZED
                  00007100    0000001e     DSP2833x_GlobalVariableDefs.obj (AdcRegsFile)

ScibRegsFile 
*          1    00007750    00000010     UNINITIALIZED
                  00007750    00000010     DSP2833x_GlobalVariableDefs.obj (ScibRegsFile)

ScicRegsFile 
*          1    00007770    00000010     UNINITIALIZED
                  00007770    00000010     DSP2833x_GlobalVariableDefs.obj (ScicRegsFile)

I2caRegsFile 
*          1    00007900    00000022     UNINITIALIZED
                  00007900    00000022     DSP2833x_GlobalVariableDefs.obj (I2caRegsFile)

.ebss      1    0000c000    0000015d     UNINITIALIZED
                  0000c000    0000013c     Example_2833xEqep_pos_speed.obj (.ebss)
                  0000c13c    00000004     rts2800_fpu32.lib : _lock.obj (.ebss)
                  0000c140    00000018     DSP2833x_CpuTimers.obj (.ebss)
                  0000c158    00000004     rts2800_fpu32.lib : exit.obj (.ebss)
                  0000c15c    00000001                       : errno.obj (.ebss)

CsmPwlFile 
*          1    0033fff8    00000008     UNINITIALIZED
                  0033fff8    00000008     DSP2833x_GlobalVariableDefs.obj (CsmPwlFile)

PartIdRegsFile 
*          1    00380090    00000001     UNINITIALIZED
                  00380090    00000001     DSP2833x_GlobalVariableDefs.obj (PartIdRegsFile)


GLOBAL SYMBOLS: SORTED ALPHABETICALLY BY Name 

address    name
--------   ----
00338000   .text
0033958b   C$$EXIT
0033913d   FS$$DIV
003394bf   L$$DIV
003394ce   L$$MOD
003394dc   UL$$DIV
003394e3   UL$$MOD
00338735   _ADCINT_ISR
00380080   _ADC_cal
00000b00   _AdcMirror
00007100   _AdcRegs
00338634   _Arc2Degree
0000c003   _AutoMode
0000c056   _CAN_RxBuffer
00339279   _ConfigCpuTimer
0000c150   _CpuTimer0
00000c00   _CpuTimer0Regs
0000c140   _CpuTimer1
00000c08   _CpuTimer1Regs
0000c148   _CpuTimer2
00000c10   _CpuTimer2Regs
0033fff8   _CsmPwl
00000ae0   _CsmRegs
00338f65   _CsmUnlock
0000c008   _D1
00338663   _DATALOG_ISR
00338857   _DINTCH1_ISR
00338861   _DINTCH2_ISR
0033886b   _DINTCH3_ISR
00338875   _DINTCH4_ISR
0033887f   _DINTCH5_ISR
00338889   _DINTCH6_ISR
0000801b   _DSP28x_usDelay
0000c030   _DegreeOfSwing
00000880   _DevEmuRegs
00338eb4   _DisableDog
00001000   _DmaRegs
00338438   _DriveWithDir
00338468   _Driver1
00338483   _Driver2
003388e3   _ECAN0INTA_ISR
003388f7   _ECAN0INTB_ISR
003388ed   _ECAN1INTA_ISR
00338901   _ECAN1INTB_ISR
003387cb   _ECAP1_INT_ISR
003387d5   _ECAP2_INT_ISR
003387df   _ECAP3_INT_ISR
003387e9   _ECAP4_INT_ISR
003387f3   _ECAP5_INT_ISR
003387fd   _ECAP6_INT_ISR
00006040   _ECanaLAMRegs
000060c0   _ECanaMOTORegs
00006080   _ECanaMOTSRegs
00006100   _ECanaMboxes
00006000   _ECanaRegs
0000c0c0   _ECanaShadow
00006240   _ECanbLAMRegs
000062c0   _ECanbMOTORegs
00006280   _ECanbMOTSRegs
00006300   _ECanbMboxes
00006200   _ECanbRegs
00006a00   _ECap1Regs
00006a20   _ECap2Regs
00006a40   _ECap3Regs
00006a60   _ECap4Regs
00006a80   _ECap5Regs
00006aa0   _ECap6Regs
00338677   _EMUINT_ISR
0033878f   _EPWM1_INT_ISR
00338753   _EPWM1_TZINT_ISR
0033900d   _EPWM1_int
00338799   _EPWM2_INT_ISR
0033875d   _EPWM2_TZINT_ISR
00339047   _EPWM2_int
003387a3   _EPWM3_INT_ISR
00338767   _EPWM3_TZINT_ISR
003387ad   _EPWM4_INT_ISR
00338771   _EPWM4_TZINT_ISR
003387b7   _EPWM5_INT_ISR
0033877b   _EPWM5_TZINT_ISR
003387c1   _EPWM6_INT_ISR
00338785   _EPWM6_TZINT_ISR
00006800   _EPwm1Regs
00006840   _EPwm2Regs
00006880   _EPwm3Regs
000068c0   _EPwm4Regs
00006900   _EPwm5Regs
00006940   _EPwm6Regs
00338807   _EQEP1_INT_ISR
00338811   _EQEP2_INT_ISR
00006b00   _EQep1Regs
00006b40   _EQep2Regs
00339508   _EnableInterrupts
0000c018   _EndFlg1
0000c01a   _EndFlg2
0000c02e   _ExRamStart
0000c000   _FinishStepFlag
0000c009   _FinishStepFlag2
00000a80   _FlashRegs
00338427   _GetCountFromDegree
00338641   _GetDegreeFromCount
0033849f   _Get_Position
00006f80   _GpioCtrlRegs
00006fc0   _GpioDataRegs
00006fe0   _GpioIntRegs
00338893   _I2CINT1A_ISR
0033889d   _I2CINT2A_ISR
00007900   _I2caRegs
0033868b   _ILLEGAL_ISR
0033864f   _INT13_ISR
00338659   _INT14_ISR
003fead8   _IQ10mpyRndSatTable
003feacc   _IQ11mpyRndSatTable
003feac0   _IQ12mpyRndSatTable
003feab4   _IQ13mpyRndSatTable
003feaa8   _IQ14mpyRndSatTable
003fea9c   _IQ15mpyRndSatTable
003fea90   _IQ16mpyRndSatTable
003fea84   _IQ17mpyRndSatTable
003fea78   _IQ18mpyRndSatTable
003fea6c   _IQ19mpyRndSatTable
003feb44   _IQ1mpyRndSatTable
003fea60   _IQ20mpyRndSatTable
003fea54   _IQ21mpyRndSatTable
003fea48   _IQ22mpyRndSatTable
003fea3c   _IQ23mpyRndSatTable
003fea30   _IQ24mpyRndSatTable
003fea24   _IQ25mpyRndSatTable
003fea18   _IQ26mpyRndSatTable
003fea0c   _IQ27mpyRndSatTable
003fea00   _IQ28mpyRndSatTable
003fe9f4   _IQ29mpyRndSatTable
003feb38   _IQ2mpyRndSatTable
003fe9e8   _IQ30mpyRndSatTable
003feb2c   _IQ3mpyRndSatTable
003feb20   _IQ4mpyRndSatTable
003feb14   _IQ5mpyRndSatTable
003feb08   _IQ6mpyRndSatTable
003feafc   _IQ7mpyRndSatTable
003feaf0   _IQ8mpyRndSatTable
003feae4   _IQ9mpyRndSatTable
003fe824   _IQatan2HalfPITable
003fe862   _IQatan2Table
003fe9e8   _IQatan2TableEnd
003fe100   _IQcosTable
003fe502   _IQcosTableEnd
003fe502   _IQdivRoundSatTable
003fe510   _IQdivTable
003fe712   _IQdivTableEnd
003fe712   _IQisqrtRoundSatTable
003fe722   _IQisqrtTable
003fe824   _IQisqrtTableEnd
003fe9e8   _IQmpyRndSatTable
003feb50   _IQmpyRndSatTableEnd
003fe000   _IQsinTable
003fe400   _IQsinTableEnd
003fe712   _IQsqrtRoundSatTable
003fe722   _IQsqrtTable
003fe824   _IQsqrtTableEnd
00339240   _InitCpuTimers
00338b73   _InitECan
00338c7a   _InitECanGpio
00338b78   _InitECana
00338c7f   _InitECanaGpio
00338bf9   _InitECanb
00338c8f   _InitECanbGpio
00339075   _InitEPwm
00339083   _InitEPwm1Gpio
00339095   _InitEPwm2Gpio
003390a7   _InitEPwm3Gpio
003390bb   _InitEPwm4Gpio
003390cf   _InitEPwm5Gpio
003390e1   _InitEPwm6Gpio
00339076   _InitEPwmGpio
003390f3   _InitEPwmSyncGpio
003391c5   _InitEQep
003391fb   _InitEQep1Gpio
0033921a   _InitEQep2Gpio
003391f6   _InitEQepGpio
00008000   _InitFlash
00338f0a   _InitPeripheralClocks
003394e9   _InitPieCtrl
00339532   _InitPieVectTable
00338ebc   _InitPll
00339493   _InitSpi
00339494   _InitSpiGpio
00339497   _InitSpiaGpio
00338ea1   _InitSysCtrl
00339107   _InitTzGpio
00338ca3   _InitXintf
00338d3f   _InitXintf16Gpio
00338cf8   _InitXintf32Gpio
0000c048   _Interrupt_Count
00338947   _LUF_ISR
0033893d   _LVF_ISR
00338843   _MRINTA_ISR
0033882f   _MRINTB_ISR
0033884d   _MXINTA_ISR
00338839   _MXINTB_ISR
0000c100   _Map
00005000   _McbspaRegs
00005040   _McbspbRegs
0000c01e   _N
0000c010   _N2
00338681   _NMI_ISR
00338951   _PIE_RESERVED
00338a8c   _POSSPEED1_Calc
00338985   _POSSPEED1_Init
003389a5   _POSSPEED_Calc
00338965   _POSSPEED_Init
0000c00b   _PRD
00380090   _PartIdRegs
00000ce0   _PieCtrlRegs
00000d00   _PieVectTable
003395b6   _PieVectTableInit
0000c00c   _Pwm2OneStepFinishFlag
0000c007   _PwmOneStepFinishFlag
0033866d   _RTOSINT_ISR
0032001f   _RamfuncsLoadEnd
00320000   _RamfuncsLoadStart
00008000   _RamfuncsRunStart
0000c042   _Receive_PWM
003388bb   _SCIRXINTA_ISR
003388cf   _SCIRXINTB_ISR
003388a7   _SCIRXINTC_ISR
003388c5   _SCITXINTA_ISR
003388d9   _SCITXINTB_ISR
003388b1   _SCITXINTC_ISR
0033870d   _SEQ1INT_ISR
00338717   _SEQ2INT_ISR
0033881b   _SPIRXINTA_ISR
00338825   _SPITXINTA_ISR
00007050   _SciaRegs
00007750   _ScibRegs
00007770   _ScicRegs
00338eaa   _ServiceDog
00007040   _SpiaRegs
0000c022   _StartFlg
00007010   _SysCtrlRegs
0033873f   _TINT0_ISR
003386ef   _USER10_ISR
003386f9   _USER11_ISR
00338703   _USER12_ISR
00338695   _USER1_ISR
0033869f   _USER2_ISR
003386a9   _USER3_ISR
003386b3   _USER4_ISR
003386bd   _USER5_ISR
003386c7   _USER6_ISR
003386d1   _USER7_ISR
003386db   _USER8_ISR
003386e5   _USER9_ISR
00338749   _WAKEINT_ISR
00338721   _XINT1_ISR
0033872b   _XINT2_ISR
0033890b   _XINT3_ISR
00338915   _XINT4_ISR
0033891f   _XINT5_ISR
00338929   _XINT6_ISR
00338933   _XINT7_ISR
00007070   _XIntruptRegs
00000b20   _XintfRegs
00328000   __IQ24div
000007e8   __STACK_END
000003e8   __STACK_SIZE
00000001   __TI_args_main
ffffffff   ___binit__
ffffffff   ___c_args__
003396c6   ___cinit__
003395b5   ___etext__
00339511   ___memcpy_ff
ffffffff   ___pinit__
00338000   ___text__
00339572   __args_main
0000c158   __cleanup_ptr
0000c15a   __dtors_ptr
0000c13e   __lock
003395ac   __nop
003395a8   __register_lock
003395a4   __register_unlock
00000400   __stack
0000c13c   __unlock
0033958b   _abort
00339324   _acos
0000c028   _angle
003392b4   _atan
0000c036   _baseX
0000c038   _baseY
0033944d   _c_int00
003384df   _calulate_from_edges
0000c014   _code
0000c012   _code_d
0000c020   _code_flag
0000c00e   _code_r
0000c016   _code_r1
0000c026   _codebuffer
00339393   _cos
00338f96   _cpu_timer2_isr
0000c050   _current_pos
0000c040   _dir
0000c01c   _dir1
0000c004   _dir_flag_for_guidence
0000c02c   _distance
0000c002   _distance_valid_flag
003385de   _drive
0000c15c   _errno
0033958d   _exit
0000c03c   _flag
0000c03a   _flag1
0033850d   _get_angle
00338336   _get_nearest_point
003383a9   _get_next_point_on_trace
0000c00a   _i
00338da9   _initEpwm1A
00338de9   _initEpwm1A_WithSpeed
00338e64   _initEpwm1B
00338e26   _initEpwm2A
0033842e   _initGpio_pwm
00338000   _main
0000c04a   _next_map_pos
0000c03e   _nn
0000c02a   _polar_angle_count
00338fae   _prdTick
0000c006   _pwm2
0000c060   _qep_posspeed
0000c080   _qep_posspeed1
0000c032   _qposcntx
0000c044   _qposcnty
0033895b   _rsvd_ISR
0000c046   _scale
00338604   _scan
003393f2   _sin
00339552   _sqrt
0000c001   _stepLength
0000c024   _stepcount
0000c034   _walkstep
0000c005   _y_bias
ffffffff   binit
003396c6   cinit
0033fff6   code_start
003395b5   etext
ffffffff   pinit


GLOBAL SYMBOLS: SORTED BY Symbol Address 

address    name
--------   ----
00000001   __TI_args_main
000003e8   __STACK_SIZE
00000400   __stack
000007e8   __STACK_END
00000880   _DevEmuRegs
00000a80   _FlashRegs
00000ae0   _CsmRegs
00000b00   _AdcMirror
00000b20   _XintfRegs
00000c00   _CpuTimer0Regs
00000c08   _CpuTimer1Regs
00000c10   _CpuTimer2Regs
00000ce0   _PieCtrlRegs
00000d00   _PieVectTable
00001000   _DmaRegs
00005000   _McbspaRegs
00005040   _McbspbRegs
00006000   _ECanaRegs
00006040   _ECanaLAMRegs
00006080   _ECanaMOTSRegs
000060c0   _ECanaMOTORegs
00006100   _ECanaMboxes
00006200   _ECanbRegs
00006240   _ECanbLAMRegs
00006280   _ECanbMOTSRegs
000062c0   _ECanbMOTORegs
00006300   _ECanbMboxes
00006800   _EPwm1Regs
00006840   _EPwm2Regs
00006880   _EPwm3Regs
000068c0   _EPwm4Regs
00006900   _EPwm5Regs
00006940   _EPwm6Regs
00006a00   _ECap1Regs
00006a20   _ECap2Regs
00006a40   _ECap3Regs
00006a60   _ECap4Regs
00006a80   _ECap5Regs
00006aa0   _ECap6Regs
00006b00   _EQep1Regs
00006b40   _EQep2Regs
00006f80   _GpioCtrlRegs
00006fc0   _GpioDataRegs
00006fe0   _GpioIntRegs
00007010   _SysCtrlRegs
00007040   _SpiaRegs
00007050   _SciaRegs
00007070   _XIntruptRegs
00007100   _AdcRegs
00007750   _ScibRegs
00007770   _ScicRegs
00007900   _I2caRegs
00008000   _InitFlash
00008000   _RamfuncsRunStart
0000801b   _DSP28x_usDelay
0000c000   _FinishStepFlag
0000c001   _stepLength
0000c002   _distance_valid_flag
0000c003   _AutoMode
0000c004   _dir_flag_for_guidence
0000c005   _y_bias
0000c006   _pwm2
0000c007   _PwmOneStepFinishFlag
0000c008   _D1
0000c009   _FinishStepFlag2
0000c00a   _i
0000c00b   _PRD
0000c00c   _Pwm2OneStepFinishFlag
0000c00e   _code_r
0000c010   _N2
0000c012   _code_d
0000c014   _code
0000c016   _code_r1
0000c018   _EndFlg1
0000c01a   _EndFlg2
0000c01c   _dir1
0000c01e   _N
0000c020   _code_flag
0000c022   _StartFlg
0000c024   _stepcount
0000c026   _codebuffer
0000c028   _angle
0000c02a   _polar_angle_count
0000c02c   _distance
0000c02e   _ExRamStart
0000c030   _DegreeOfSwing
0000c032   _qposcntx
0000c034   _walkstep
0000c036   _baseX
0000c038   _baseY
0000c03a   _flag1
0000c03c   _flag
0000c03e   _nn
0000c040   _dir
0000c042   _Receive_PWM
0000c044   _qposcnty
0000c046   _scale
0000c048   _Interrupt_Count
0000c04a   _next_map_pos
0000c050   _current_pos
0000c056   _CAN_RxBuffer
0000c060   _qep_posspeed
0000c080   _qep_posspeed1
0000c0c0   _ECanaShadow
0000c100   _Map
0000c13c   __unlock
0000c13e   __lock
0000c140   _CpuTimer1
0000c148   _CpuTimer2
0000c150   _CpuTimer0
0000c158   __cleanup_ptr
0000c15a   __dtors_ptr
0000c15c   _errno
00320000   _RamfuncsLoadStart
0032001f   _RamfuncsLoadEnd
00328000   __IQ24div
00338000   .text
00338000   ___text__
00338000   _main
00338336   _get_nearest_point
003383a9   _get_next_point_on_trace
00338427   _GetCountFromDegree
0033842e   _initGpio_pwm
00338438   _DriveWithDir
00338468   _Driver1
00338483   _Driver2
0033849f   _Get_Position
003384df   _calulate_from_edges
0033850d   _get_angle
003385de   _drive
00338604   _scan
00338634   _Arc2Degree
00338641   _GetDegreeFromCount
0033864f   _INT13_ISR
00338659   _INT14_ISR
00338663   _DATALOG_ISR
0033866d   _RTOSINT_ISR
00338677   _EMUINT_ISR
00338681   _NMI_ISR
0033868b   _ILLEGAL_ISR
00338695   _USER1_ISR
0033869f   _USER2_ISR
003386a9   _USER3_ISR
003386b3   _USER4_ISR
003386bd   _USER5_ISR
003386c7   _USER6_ISR
003386d1   _USER7_ISR
003386db   _USER8_ISR
003386e5   _USER9_ISR
003386ef   _USER10_ISR
003386f9   _USER11_ISR
00338703   _USER12_ISR
0033870d   _SEQ1INT_ISR
00338717   _SEQ2INT_ISR
00338721   _XINT1_ISR
0033872b   _XINT2_ISR
00338735   _ADCINT_ISR
0033873f   _TINT0_ISR
00338749   _WAKEINT_ISR
00338753   _EPWM1_TZINT_ISR
0033875d   _EPWM2_TZINT_ISR
00338767   _EPWM3_TZINT_ISR
00338771   _EPWM4_TZINT_ISR
0033877b   _EPWM5_TZINT_ISR
00338785   _EPWM6_TZINT_ISR
0033878f   _EPWM1_INT_ISR
00338799   _EPWM2_INT_ISR
003387a3   _EPWM3_INT_ISR
003387ad   _EPWM4_INT_ISR
003387b7   _EPWM5_INT_ISR
003387c1   _EPWM6_INT_ISR
003387cb   _ECAP1_INT_ISR
003387d5   _ECAP2_INT_ISR
003387df   _ECAP3_INT_ISR
003387e9   _ECAP4_INT_ISR
003387f3   _ECAP5_INT_ISR
003387fd   _ECAP6_INT_ISR
00338807   _EQEP1_INT_ISR
00338811   _EQEP2_INT_ISR
0033881b   _SPIRXINTA_ISR
00338825   _SPITXINTA_ISR
0033882f   _MRINTB_ISR
00338839   _MXINTB_ISR
00338843   _MRINTA_ISR
0033884d   _MXINTA_ISR
00338857   _DINTCH1_ISR
00338861   _DINTCH2_ISR
0033886b   _DINTCH3_ISR
00338875   _DINTCH4_ISR
0033887f   _DINTCH5_ISR
00338889   _DINTCH6_ISR
00338893   _I2CINT1A_ISR
0033889d   _I2CINT2A_ISR
003388a7   _SCIRXINTC_ISR
003388b1   _SCITXINTC_ISR
003388bb   _SCIRXINTA_ISR
003388c5   _SCITXINTA_ISR
003388cf   _SCIRXINTB_ISR
003388d9   _SCITXINTB_ISR
003388e3   _ECAN0INTA_ISR
003388ed   _ECAN1INTA_ISR
003388f7   _ECAN0INTB_ISR
00338901   _ECAN1INTB_ISR
0033890b   _XINT3_ISR
00338915   _XINT4_ISR
0033891f   _XINT5_ISR
00338929   _XINT6_ISR
00338933   _XINT7_ISR
0033893d   _LVF_ISR
00338947   _LUF_ISR
00338951   _PIE_RESERVED
0033895b   _rsvd_ISR
00338965   _POSSPEED_Init
00338985   _POSSPEED1_Init
003389a5   _POSSPEED_Calc
00338a8c   _POSSPEED1_Calc
00338b73   _InitECan
00338b78   _InitECana
00338bf9   _InitECanb
00338c7a   _InitECanGpio
00338c7f   _InitECanaGpio
00338c8f   _InitECanbGpio
00338ca3   _InitXintf
00338cf8   _InitXintf32Gpio
00338d3f   _InitXintf16Gpio
00338da9   _initEpwm1A
00338de9   _initEpwm1A_WithSpeed
00338e26   _initEpwm2A
00338e64   _initEpwm1B
00338ea1   _InitSysCtrl
00338eaa   _ServiceDog
00338eb4   _DisableDog
00338ebc   _InitPll
00338f0a   _InitPeripheralClocks
00338f65   _CsmUnlock
00338f96   _cpu_timer2_isr
00338fae   _prdTick
0033900d   _EPWM1_int
00339047   _EPWM2_int
00339075   _InitEPwm
00339076   _InitEPwmGpio
00339083   _InitEPwm1Gpio
00339095   _InitEPwm2Gpio
003390a7   _InitEPwm3Gpio
003390bb   _InitEPwm4Gpio
003390cf   _InitEPwm5Gpio
003390e1   _InitEPwm6Gpio
003390f3   _InitEPwmSyncGpio
00339107   _InitTzGpio
0033913d   FS$$DIV
003391c5   _InitEQep
003391f6   _InitEQepGpio
003391fb   _InitEQep1Gpio
0033921a   _InitEQep2Gpio
00339240   _InitCpuTimers
00339279   _ConfigCpuTimer
003392b4   _atan
00339324   _acos
00339393   _cos
003393f2   _sin
0033944d   _c_int00
00339493   _InitSpi
00339494   _InitSpiGpio
00339497   _InitSpiaGpio
003394bf   L$$DIV
003394ce   L$$MOD
003394dc   UL$$DIV
003394e3   UL$$MOD
003394e9   _InitPieCtrl
00339508   _EnableInterrupts
00339511   ___memcpy_ff
00339532   _InitPieVectTable
00339552   _sqrt
00339572   __args_main
0033958b   C$$EXIT
0033958b   _abort
0033958d   _exit
003395a4   __register_unlock
003395a8   __register_lock
003395ac   __nop
003395b5   ___etext__
003395b5   etext
003395b6   _PieVectTableInit
003396c6   ___cinit__
003396c6   cinit
0033fff6   code_start
0033fff8   _CsmPwl
00380080   _ADC_cal
00380090   _PartIdRegs
003fe000   _IQsinTable
003fe100   _IQcosTable
003fe400   _IQsinTableEnd
003fe502   _IQcosTableEnd
003fe502   _IQdivRoundSatTable
003fe510   _IQdivTable
003fe712   _IQdivTableEnd
003fe712   _IQisqrtRoundSatTable
003fe712   _IQsqrtRoundSatTable
003fe722   _IQisqrtTable
003fe722   _IQsqrtTable
003fe824   _IQatan2HalfPITable
003fe824   _IQisqrtTableEnd
003fe824   _IQsqrtTableEnd
003fe862   _IQatan2Table
003fe9e8   _IQ30mpyRndSatTable
003fe9e8   _IQatan2TableEnd
003fe9e8   _IQmpyRndSatTable
003fe9f4   _IQ29mpyRndSatTable
003fea00   _IQ28mpyRndSatTable
003fea0c   _IQ27mpyRndSatTable
003fea18   _IQ26mpyRndSatTable
003fea24   _IQ25mpyRndSatTable
003fea30   _IQ24mpyRndSatTable
003fea3c   _IQ23mpyRndSatTable
003fea48   _IQ22mpyRndSatTable
003fea54   _IQ21mpyRndSatTable
003fea60   _IQ20mpyRndSatTable
003fea6c   _IQ19mpyRndSatTable
003fea78   _IQ18mpyRndSatTable
003fea84   _IQ17mpyRndSatTable
003fea90   _IQ16mpyRndSatTable
003fea9c   _IQ15mpyRndSatTable
003feaa8   _IQ14mpyRndSatTable
003feab4   _IQ13mpyRndSatTable
003feac0   _IQ12mpyRndSatTable
003feacc   _IQ11mpyRndSatTable
003fead8   _IQ10mpyRndSatTable
003feae4   _IQ9mpyRndSatTable
003feaf0   _IQ8mpyRndSatTable
003feafc   _IQ7mpyRndSatTable
003feb08   _IQ6mpyRndSatTable
003feb14   _IQ5mpyRndSatTable
003feb20   _IQ4mpyRndSatTable
003feb2c   _IQ3mpyRndSatTable
003feb38   _IQ2mpyRndSatTable
003feb44   _IQ1mpyRndSatTable
003feb50   _IQmpyRndSatTableEnd
ffffffff   ___binit__
ffffffff   ___c_args__
ffffffff   ___pinit__
ffffffff   binit
ffffffff   pinit

[342 symbols]
